target datalayout = "e-m:e-p270:32:32-p271:32:32-p272:64:64-i64:64-i128:128-f80:128-n8:16:32:64-S128"
target triple = "x86_64-pc-linux-gnu"

%struct.AVFormatContext = type { ptr, ptr, ptr, ptr, ptr, i32, i32, ptr, i32, ptr, i32, ptr, ptr, i64, i64, i64, i32, i32, i32, i64, i64, ptr, i32, i32, ptr, i32, i32, i32, i32, ptr, i64, i32, i32, %struct.AVIOInterruptCB, i32, i32, i32, i32, i64, i32, i32, i32, i32, i32, i32, i32, i32, i32, i32, i32, i32, i64, i32, i32, i32, i32, i32, ptr, ptr, ptr, ptr, i32, ptr, ptr, ptr, ptr, i32, ptr, ptr, i64, ptr, ptr, ptr, i64 }
%struct.AVIOInterruptCB = type { ptr, ptr }
%struct.NUTContext = type { ptr, ptr, [256 x %struct.FrameCode], [128 x i8], [128 x ptr], i64, ptr, ptr, i32, i32, i64, i64, i32, ptr, ptr, i32, i32, i64, ptr, i32, i32, i32 }
%struct.FrameCode = type { i16, i8, i16, i16, i16, i8, i8 }
%struct.StreamContext = type { i32, i32, i64, i32, ptr, i32, i32, i32, ptr }

; Function Attrs: nounwind uwtable
define internal void @nut_write_deinit(ptr noundef %0) #0 {
  %2 = alloca ptr, align 8
  %3 = alloca ptr, align 8
  %4 = alloca i32, align 4
  store ptr %0, ptr %2, align 8, !tbaa !4
  call void @llvm.lifetime.start.p0(i64 8, ptr %3) #12
  %5 = load ptr, ptr %2, align 8, !tbaa !4
  %6 = getelementptr inbounds nuw %struct.AVFormatContext, ptr %5, i32 0, i32 3
  %7 = load ptr, ptr %6, align 8, !tbaa !9
  store ptr %7, ptr %3, align 8, !tbaa !26
  call void @llvm.lifetime.start.p0(i64 4, ptr %4) #12
  %8 = load ptr, ptr %3, align 8, !tbaa !26
  call void @ff_nut_free_sp(ptr noundef %8)
  %9 = load ptr, ptr %3, align 8, !tbaa !26
  %10 = getelementptr inbounds nuw %struct.NUTContext, ptr %9, i32 0, i32 6
  %11 = load ptr, ptr %10, align 8, !tbaa !40
  %12 = icmp ne ptr %11, null
  br i1 %12, label %13, label %32

13:                                               ; preds = %1
  store i32 0, ptr %4, align 4, !tbaa !44
  br label %14

14:                                               ; preds = %28, %13
  %15 = load i32, ptr %4, align 4, !tbaa !44
  %16 = load ptr, ptr %2, align 8, !tbaa !4
  %17 = getelementptr inbounds nuw %struct.AVFormatContext, ptr %16, i32 0, i32 6
  %18 = load i32, ptr %17, align 4, !tbaa !39
  %19 = icmp ult i32 %15, %18
  br i1 %19, label %20, label %31

20:                                               ; preds = %14
  %21 = load ptr, ptr %3, align 8, !tbaa !26
  %22 = getelementptr inbounds nuw %struct.NUTContext, ptr %21, i32 0, i32 6
  %23 = load ptr, ptr %22, align 8, !tbaa !40
  %24 = load i32, ptr %4, align 4, !tbaa !44
  %25 = sext i32 %24 to i64
  %26 = getelementptr inbounds %struct.StreamContext, ptr %23, i64 %25
  %27 = getelementptr inbounds nuw %struct.StreamContext, ptr %26, i32 0, i32 8
  call void @av_freep(ptr noundef %27)
  br label %28

28:                                               ; preds = %20
  %29 = load i32, ptr %4, align 4, !tbaa !44
  %30 = add nsw i32 %29, 1
  store i32 %30, ptr %4, align 4, !tbaa !44
  br label %14, !llvm.loop !132

31:                                               ; preds = %14
  br label %32

32:                                               ; preds = %31, %1
  %33 = load ptr, ptr %3, align 8, !tbaa !26
  %34 = getelementptr inbounds nuw %struct.NUTContext, ptr %33, i32 0, i32 6
  call void @av_freep(ptr noundef %34)
  %35 = load ptr, ptr %3, align 8, !tbaa !26
  %36 = getelementptr inbounds nuw %struct.NUTContext, ptr %35, i32 0, i32 7
  call void @av_freep(ptr noundef %36)
  %37 = load ptr, ptr %3, align 8, !tbaa !26
  %38 = getelementptr inbounds nuw %struct.NUTContext, ptr %37, i32 0, i32 13
  call void @av_freep(ptr noundef %38)
  call void @llvm.lifetime.end.p0(i64 4, ptr %4) #12
  call void @llvm.lifetime.end.p0(i64 8, ptr %3) #12
  ret void
}