; Function Attrs: nounwind uwtable
define internal void @nut_write_deinit(ptr noundef readonly captures(none) %0) #0 {
  %2 = getelementptr inbounds nuw i8, ptr %0, i64 24
  %3 = load ptr, ptr %2, align 8, !tbaa !4
  tail call void @ff_nut_free_sp(ptr noundef %3) #12
  %4 = getelementptr inbounds nuw i8, ptr %3, i64 4248
  %5 = load ptr, ptr %4, align 8, !tbaa !36
  %.not = icmp eq ptr %5, null
  br i1 %.not, label %.loopexit, label %.preheader

.preheader:                                       ; preds = %1
  %6 = getelementptr inbounds nuw i8, ptr %0, i64 44
  %7 = load i32, ptr %6, align 4, !tbaa !35
  %.not11 = icmp eq i32 %7, 0
  br i1 %.not11, label %.loopexit, label %.lr.ph

.lr.ph:                                           ; preds = %.preheader, %.lr.ph
  %indvars.iv = phi i64 [ %indvars.iv.next, %.lr.ph ], [ 0, %.preheader ]
  %8 = load ptr, ptr %4, align 8, !tbaa !36
  %9 = getelementptr inbounds nuw %struct.StreamContext, ptr %8, i64 %indvars.iv, i32 8
  tail call void @av_freep(ptr noundef nonnull %9) #12
  %indvars.iv.next = add nuw nsw i64 %indvars.iv, 1
  %10 = load i32, ptr %6, align 4, !tbaa !35
  %11 = zext i32 %10 to i64
  %12 = icmp samesign ult i64 %indvars.iv.next, %11
  br i1 %12, label %.lr.ph, label %.loopexit, !llvm.loop !154

.loopexit:                                        ; preds = %.lr.ph, %.preheader, %1
  tail call void @av_freep(ptr noundef nonnull %4) #12
  %13 = getelementptr inbounds nuw i8, ptr %3, i64 4256
  tail call void @av_freep(ptr noundef nonnull %13) #12
  %14 = getelementptr inbounds nuw i8, ptr %3, i64 4296
  tail call void @av_freep(ptr noundef nonnull %14) #12
  ret void
}